target datalayout = "e-m:e-p270:32:32-p271:32:32-p272:64:64-i64:64-i128:128-f80:128-n8:16:32:64-S128"
target triple = "x86_64-pc-linux-gnu"

%struct.SN_env = type { ptr, i32, i32, i32, i32, i32, ptr, ptr }

@s_57 = internal constant [8 x i8] c"\CE\B1\CF\81\CE\B1\CE\BA", align 1

; Function Attrs: nounwind uwtable
define internal i32 @r_steps7(ptr noundef %0) #0 {
  %2 = alloca i32, align 4
  %3 = alloca ptr, align 8
  %4 = alloca i32, align 4
  %5 = alloca i32, align 4
  %6 = alloca i32, align 4
  store ptr %0, ptr %3, align 8
  %7 = load ptr, ptr %3, align 8
  %8 = getelementptr inbounds nuw %struct.SN_env, ptr %7, i32 0, i32 1
  %9 = load i32, ptr %8, align 8
  %10 = load ptr, ptr %3, align 8
  %11 = getelementptr inbounds nuw %struct.SN_env, ptr %10, i32 0, i32 5
  store i32 %9, ptr %11, align 8
  %12 = load ptr, ptr %3, align 8
  %13 = getelementptr inbounds nuw %struct.SN_env, ptr %12, i32 0, i32 1
  %14 = load i32, ptr %13, align 8
  %15 = sub i32 %14, 9
  %16 = load ptr, ptr %3, align 8
  %17 = getelementptr inbounds nuw %struct.SN_env, ptr %16, i32 0, i32 3
  %18 = load i32, ptr %17, align 8
  %19 = icmp sle i32 %15, %18
  br i1 %19, label %46, label %20

20:                                               ; preds = %1
  %21 = load ptr, ptr %3, align 8
  %22 = getelementptr inbounds nuw %struct.SN_env, ptr %21, i32 0, i32 0
  %23 = load ptr, ptr %22, align 8
  %24 = load ptr, ptr %3, align 8
  %25 = getelementptr inbounds nuw %struct.SN_env, ptr %24, i32 0, i32 1
  %26 = load i32, ptr %25, align 8
  %27 = sub i32 %26, 1
  %28 = sext i32 %27 to i64
  %29 = getelementptr inbounds i8, ptr %23, i64 %28
  %30 = load i8, ptr %29, align 1
  %31 = zext i8 %30 to i32
  %32 = icmp ne i32 %31, 177
  br i1 %32, label %33, label %47

33:                                               ; preds = %20
  %34 = load ptr, ptr %3, align 8
  %35 = getelementptr inbounds nuw %struct.SN_env, ptr %34, i32 0, i32 0
  %36 = load ptr, ptr %35, align 8
  %37 = load ptr, ptr %3, align 8
  %38 = getelementptr inbounds nuw %struct.SN_env, ptr %37, i32 0, i32 1
  %39 = load i32, ptr %38, align 8
  %40 = sub i32 %39, 1
  %41 = sext i32 %40 to i64
  %42 = getelementptr inbounds i8, ptr %36, i64 %41
  %43 = load i8, ptr %42, align 1
  %44 = zext i8 %43 to i32
  %45 = icmp ne i32 %44, 185
  br i1 %45, label %46, label %47

46:                                               ; preds = %33, %1
  store i32 0, ptr %2, align 4
  br label %142

47:                                               ; preds = %33, %20
  %48 = load ptr, ptr %3, align 8
  %49 = call i32 @find_among_b(ptr noundef %48, ptr noundef @a_16, i32 noundef 4)
  %50 = icmp ne i32 %49, 0
  br i1 %50, label %52, label %51

51:                                               ; preds = %47
  store i32 0, ptr %2, align 4
  br label %142

52:                                               ; preds = %47
  %53 = load ptr, ptr %3, align 8
  %54 = getelementptr inbounds nuw %struct.SN_env, ptr %53, i32 0, i32 1
  %55 = load i32, ptr %54, align 8
  %56 = load ptr, ptr %3, align 8
  %57 = getelementptr inbounds nuw %struct.SN_env, ptr %56, i32 0, i32 4
  store i32 %55, ptr %57, align 4
  call void @llvm.lifetime.start.p0(i64 4, ptr %4) #3
  %58 = load ptr, ptr %3, align 8
  %59 = call i32 @slice_del(ptr noundef %58)
  store i32 %59, ptr %4, align 4
  %60 = load i32, ptr %4, align 4
  %61 = icmp slt i32 %60, 0
  br i1 %61, label %62, label %64

62:                                               ; preds = %52
  %63 = load i32, ptr %4, align 4
  store i32 %63, ptr %2, align 4
  store i32 1, ptr %5, align 4
  br label %65

64:                                               ; preds = %52
  store i32 0, ptr %5, align 4
  br label %65

65:                                               ; preds = %64, %62
  call void @llvm.lifetime.end.p0(i64 4, ptr %4) #3
  %66 = load i32, ptr %5, align 4
  switch i32 %66, label %144 [
    i32 0, label %67
    i32 1, label %142
  ]

67:                                               ; preds = %65
  %68 = load ptr, ptr %3, align 8
  %69 = getelementptr inbounds nuw %struct.SN_env, ptr %68, i32 0, i32 7
  %70 = load ptr, ptr %69, align 8
  %71 = getelementptr inbounds i32, ptr %70, i64 0
  store i32 0, ptr %71, align 4
  %72 = load ptr, ptr %3, align 8
  %73 = getelementptr inbounds nuw %struct.SN_env, ptr %72, i32 0, i32 1
  %74 = load i32, ptr %73, align 8
  %75 = load ptr, ptr %3, align 8
  %76 = getelementptr inbounds nuw %struct.SN_env, ptr %75, i32 0, i32 5
  store i32 %74, ptr %76, align 8
  %77 = load ptr, ptr %3, align 8
  %78 = getelementptr inbounds nuw %struct.SN_env, ptr %77, i32 0, i32 1
  %79 = load i32, ptr %78, align 8
  %80 = load ptr, ptr %3, align 8
  %81 = getelementptr inbounds nuw %struct.SN_env, ptr %80, i32 0, i32 4
  store i32 %79, ptr %81, align 4
  %82 = load ptr, ptr %3, align 8
  %83 = getelementptr inbounds nuw %struct.SN_env, ptr %82, i32 0, i32 1
  %84 = load i32, ptr %83, align 8
  %85 = sub i32 %84, 1
  %86 = load ptr, ptr %3, align 8
  %87 = getelementptr inbounds nuw %struct.SN_env, ptr %86, i32 0, i32 3
  %88 = load i32, ptr %87, align 8
  %89 = icmp sle i32 %85, %88
  br i1 %89, label %116, label %90

90:                                               ; preds = %67
  %91 = load ptr, ptr %3, align 8
  %92 = getelementptr inbounds nuw %struct.SN_env, ptr %91, i32 0, i32 0
  %93 = load ptr, ptr %92, align 8
  %94 = load ptr, ptr %3, align 8
  %95 = getelementptr inbounds nuw %struct.SN_env, ptr %94, i32 0, i32 1
  %96 = load i32, ptr %95, align 8
  %97 = sub i32 %96, 1
  %98 = sext i32 %97 to i64
  %99 = getelementptr inbounds i8, ptr %93, i64 %98
  %100 = load i8, ptr %99, align 1
  %101 = zext i8 %100 to i32
  %102 = icmp ne i32 %101, 131
  br i1 %102, label %103, label %117

103:                                              ; preds = %90
  %104 = load ptr, ptr %3, align 8
  %105 = getelementptr inbounds nuw %struct.SN_env, ptr %104, i32 0, i32 0
  %106 = load ptr, ptr %105, align 8
  %107 = load ptr, ptr %3, align 8
  %108 = getelementptr inbounds nuw %struct.SN_env, ptr %107, i32 0, i32 1
  %109 = load i32, ptr %108, align 8
  %110 = sub i32 %109, 1
  %111 = sext i32 %110 to i64
  %112 = getelementptr inbounds i8, ptr %106, i64 %111
  %113 = load i8, ptr %112, align 1
  %114 = zext i8 %113 to i32
  %115 = icmp ne i32 %114, 135
  br i1 %115, label %116, label %117

116:                                              ; preds = %103, %67
  store i32 0, ptr %2, align 4
  br label %142

117:                                              ; preds = %103, %90
  %118 = load ptr, ptr %3, align 8
  %119 = call i32 @find_among_b(ptr noundef %118, ptr noundef @a_15, i32 noundef 2)
  %120 = icmp ne i32 %119, 0
  br i1 %120, label %122, label %121

121:                                              ; preds = %117
  store i32 0, ptr %2, align 4
  br label %142

122:                                              ; preds = %117
  %123 = load ptr, ptr %3, align 8
  %124 = getelementptr inbounds nuw %struct.SN_env, ptr %123, i32 0, i32 1
  %125 = load i32, ptr %124, align 8
  %126 = load ptr, ptr %3, align 8
  %127 = getelementptr inbounds nuw %struct.SN_env, ptr %126, i32 0, i32 3
  %128 = load i32, ptr %127, align 8
  %129 = icmp sgt i32 %125, %128
  br i1 %129, label %130, label %131

130:                                              ; preds = %122
  store i32 0, ptr %2, align 4
  br label %142

131:                                              ; preds = %122
  call void @llvm.lifetime.start.p0(i64 4, ptr %6) #3
  %132 = load ptr, ptr %3, align 8
  %133 = call i32 @slice_from_s(ptr noundef %132, i32 noundef 8, ptr noundef @s_57)
  store i32 %133, ptr %6, align 4
  %134 = load i32, ptr %6, align 4
  %135 = icmp slt i32 %134, 0
  br i1 %135, label %136, label %138

136:                                              ; preds = %131
  %137 = load i32, ptr %6, align 4
  store i32 %137, ptr %2, align 4
  store i32 1, ptr %5, align 4
  br label %139

138:                                              ; preds = %131
  store i32 0, ptr %5, align 4
  br label %139

139:                                              ; preds = %138, %136
  call void @llvm.lifetime.end.p0(i64 4, ptr %6) #3
  %140 = load i32, ptr %5, align 4
  switch i32 %140, label %144 [
    i32 0, label %141
    i32 1, label %142
  ]

141:                                              ; preds = %139
  store i32 1, ptr %2, align 4
  br label %142

142:                                              ; preds = %141, %139, %130, %121, %116, %65, %51, %46
  %143 = load i32, ptr %2, align 4
  ret i32 %143

144:                                              ; preds = %139, %65
  unreachable
}