; Function Attrs: nounwind uwtable
define internal fastcc i32 @r_steps7(ptr noundef initializes((24, 28)) %0) unnamed_addr #0 {
  %2 = getelementptr inbounds nuw i8, ptr %0, i64 8
  %3 = load i32, ptr %2, align 8
  %4 = getelementptr inbounds nuw i8, ptr %0, i64 24
  store i32 %3, ptr %4, align 8
  %5 = add i32 %3, -9
  %6 = getelementptr inbounds nuw i8, ptr %0, i64 16
  %7 = load i32, ptr %6, align 8
  %.not = icmp sgt i32 %5, %7
  br i1 %.not, label %8, label %41

8:                                                ; preds = %1
  %9 = load ptr, ptr %0, align 8
  %10 = add i32 %3, -1
  %11 = sext i32 %10 to i64
  %12 = getelementptr inbounds i8, ptr %9, i64 %11
  %13 = load i8, ptr %12, align 1
  switch i8 %13, label %41 [
    i8 -79, label %14
    i8 -71, label %14
  ]

14:                                               ; preds = %8, %8
  %15 = tail call i32 @find_among_b(ptr noundef nonnull %0, ptr noundef nonnull @a_16, i32 noundef 4) #2
  %.not41 = icmp eq i32 %15, 0
  br i1 %.not41, label %41, label %16

16:                                               ; preds = %14
  %17 = load i32, ptr %2, align 8
  %18 = getelementptr inbounds nuw i8, ptr %0, i64 20
  store i32 %17, ptr %18, align 4
  %19 = tail call i32 @slice_del(ptr noundef nonnull %0) #2
  %20 = icmp sgt i32 %19, -1
  br i1 %20, label %21, label %41

21:                                               ; preds = %16
  %22 = getelementptr inbounds nuw i8, ptr %0, i64 40
  %23 = load ptr, ptr %22, align 8
  store i32 0, ptr %23, align 4
  %24 = load i32, ptr %2, align 8
  store i32 %24, ptr %4, align 8
  store i32 %24, ptr %18, align 4
  %25 = add i32 %24, -1
  %26 = load i32, ptr %6, align 8
  %.not42 = icmp sgt i32 %25, %26
  br i1 %.not42, label %27, label %41

27:                                               ; preds = %21
  %28 = load ptr, ptr %0, align 8
  %29 = sext i32 %25 to i64
  %30 = getelementptr inbounds i8, ptr %28, i64 %29
  %31 = load i8, ptr %30, align 1
  switch i8 %31, label %41 [
    i8 -125, label %32
    i8 -121, label %32
  ]

32:                                               ; preds = %27, %27
  %33 = tail call i32 @find_among_b(ptr noundef nonnull %0, ptr noundef nonnull @a_15, i32 noundef 2) #2
  %.not45 = icmp eq i32 %33, 0
  br i1 %.not45, label %41, label %34

34:                                               ; preds = %32
  %35 = load i32, ptr %2, align 8
  %36 = load i32, ptr %6, align 8
  %37 = icmp sgt i32 %35, %36
  br i1 %37, label %41, label %38

38:                                               ; preds = %34
  %39 = tail call i32 @slice_from_s(ptr noundef nonnull %0, i32 noundef 8, ptr noundef nonnull @s_57) #2
  %40 = icmp sgt i32 %39, -1
  %spec.select = select i1 %40, i32 1, i32 %39
  br label %41

41:                                               ; preds = %38, %16, %34, %32, %21, %27, %14, %1, %8
  %.0 = phi i32 [ %19, %16 ], [ 0, %8 ], [ 0, %1 ], [ 0, %14 ], [ 0, %27 ], [ 0, %21 ], [ 0, %32 ], [ 0, %34 ], [ %spec.select, %38 ]
  ret i32 %.0
}